; Function Attrs: nounwind uwtable
define internal ptr @getpath_isabs(ptr readnone captures(none) %0, ptr noundef %1) #0 {
  %3 = alloca ptr, align 8
  call void @llvm.lifetime.start.p0(i64 8, ptr nonnull %3) #13
  %4 = call i32 (ptr, ptr, ...) @PyArg_ParseTuple(ptr noundef %1, ptr noundef nonnull @.str.49, ptr noundef nonnull %3) #13
  %.not = icmp eq i32 %4, 0
  br i1 %.not, label %_Py_XNewRef.exit, label %5

5:                                                ; preds = %2
  %6 = load ptr, ptr %3, align 8, !tbaa !31
  %7 = call ptr @PyUnicode_AsWideCharString(ptr noundef %6, ptr noundef null) #13
  %.not8 = icmp eq ptr %7, null
  br i1 %.not8, label %_Py_XNewRef.exit, label %8

8:                                                ; preds = %5
  %9 = call i32 @_Py_isabs(ptr noundef nonnull %7) #13
  %.not9 = icmp eq i32 %9, 0
  %10 = select i1 %.not9, ptr @_Py_FalseStruct, ptr @_Py_TrueStruct
  call void @PyMem_Free(ptr noundef nonnull %7) #13
  %11 = load i32, ptr %10, align 8, !tbaa !16
  %12 = icmp slt i32 %11, 0
  br i1 %12, label %_Py_XNewRef.exit, label %13

13:                                               ; preds = %8
  %14 = add nuw i32 %11, 1
  store i32 %14, ptr %10, align 8, !tbaa !16
  br label %_Py_XNewRef.exit

_Py_XNewRef.exit:                                 ; preds = %5, %13, %8, %2
  %.0 = phi ptr [ null, %2 ], [ %10, %8 ], [ %10, %13 ], [ null, %5 ]
  call void @llvm.lifetime.end.p0(i64 8, ptr nonnull %3) #13
  ret ptr %.0
}